; ModuleID = '34/152.c'
source_filename = "34/152.c"
target datalayout = "e-m:e-p270:32:32-p271:32:32-p272:64:64-i64:64-f80:128-n8:16:32:64-S128"
target triple = "x86_64-pc-linux-gnu"

@.str = private unnamed_addr constant [3 x i8] c"%d\00", align 1
@.str.1 = private unnamed_addr constant [5 x i8] c"End\0A\00", align 1
@.str.2 = private unnamed_addr constant [9 x i8] c"%d/2=%d\0A\00", align 1
@.str.3 = private unnamed_addr constant [11 x i8] c"%d*3+1=%d\0A\00", align 1

; Function Attrs: noinline nounwind uwtable
define dso_local void @main() #0 {
  %1 = alloca i32, align 4
  %2 = alloca i32, align 4
  %3 = alloca i32, align 4
  %4 = alloca i32, align 4
  %5 = call i32 (i8*, ...) @__isoc99_scanf(i8* getelementptr inbounds ([3 x i8], [3 x i8]* @.str, i64 0, i64 0), i32* %1)
  %6 = load i32, i32* %1, align 4
  %7 = icmp eq i32 %6, 1
  br i1 %7, label %8, label %10

8:                                                ; preds = %0
  %9 = call i32 (i8*, ...) @printf(i8* getelementptr inbounds ([5 x i8], [5 x i8]* @.str.1, i64 0, i64 0))
  br label %41

10:                                               ; preds = %0
  %11 = load i32, i32* %1, align 4
  store i32 %11, i32* %4, align 4
  store i32 %11, i32* %3, align 4
  br label %12

12:                                               ; preds = %36, %10
  %13 = load i32, i32* %3, align 4
  %14 = srem i32 %13, 2
  %15 = icmp eq i32 %14, 0
  br i1 %15, label %16, label %25

16:                                               ; preds = %12
  %17 = load i32, i32* %3, align 4
  %18 = sdiv i32 %17, 2
  store i32 %18, i32* %4, align 4
  %19 = load i32, i32* %3, align 4
  %20 = load i32, i32* %4, align 4
  %21 = call i32 (i8*, ...) @printf(i8* getelementptr inbounds ([9 x i8], [9 x i8]* @.str.2, i64 0, i64 0), i32 %19, i32 %20)
  %22 = load i32, i32* %3, align 4
  store i32 %22, i32* %2, align 4
  %23 = load i32, i32* %4, align 4
  store i32 %23, i32* %3, align 4
  %24 = load i32, i32* %2, align 4
  store i32 %24, i32* %4, align 4
  br label %35

25:                                               ; preds = %12
  %26 = load i32, i32* %3, align 4
  %27 = mul nsw i32 %26, 3
  %28 = add nsw i32 %27, 1
  store i32 %28, i32* %4, align 4
  %29 = load i32, i32* %3, align 4
  %30 = load i32, i32* %4, align 4
  %31 = call i32 (i8*, ...) @printf(i8* getelementptr inbounds ([11 x i8], [11 x i8]* @.str.3, i64 0, i64 0), i32 %29, i32 %30)
  %32 = load i32, i32* %3, align 4
  store i32 %32, i32* %2, align 4
  %33 = load i32, i32* %4, align 4
  store i32 %33, i32* %3, align 4
  %34 = load i32, i32* %2, align 4
  store i32 %34, i32* %4, align 4
  br label %35

35:                                               ; preds = %25, %16
  br label %36

36:                                               ; preds = %35
  %37 = load i32, i32* %3, align 4
  %38 = icmp ne i32 %37, 1
  br i1 %38, label %12, label %39

39:                                               ; preds = %36
  %40 = call i32 (i8*, ...) @printf(i8* getelementptr inbounds ([5 x i8], [5 x i8]* @.str.1, i64 0, i64 0))
  br label %41

41:                                               ; preds = %39, %8
  ret void
}

declare dso_local i32 @__isoc99_scanf(i8*, ...) #1

declare dso_local i32 @printf(i8*, ...) #1


!llvm.module.flags = !{!0}
!llvm.ident = !{!1}

!0 = !{i32 1, !"wchar_size", i32 4}
!1 = !{!"clang version 10.0.0-4ubuntu1 "}
